; Function Attrs: mustprogress nofree norecurse nosync nounwind willreturn memory(argmem: read) uwtable
define noundef zeroext i1 @_ZNK8proxygen12QPACKEncoder23dynamicReferenceAllowedEv(ptr nocapture noundef nonnull readonly align 8 dereferenceable(624) %this) local_unnamed_addr #7 align 2 {
entry:
  %numOutstandingBlocks_ = getelementptr inbounds i8, ptr %this, i64 616
  %0 = load i32, ptr %numOutstandingBlocks_, align 8
  %maxNumOutstandingBlocks_ = getelementptr inbounds i8, ptr %this, i64 620
  %1 = load i32, ptr %maxNumOutstandingBlocks_, align 4
  %cmp = icmp ult i32 %0, %1
  ret i1 %cmp
}